target datalayout = "e-m:e-p270:32:32-p271:32:32-p272:64:64-i64:64-i128:128-f80:128-n8:16:32:64-S128"
target triple = "x86_64-pc-linux-gnu"

%struct.evp_rand_ctx_st = type { ptr, ptr, ptr, %struct.CRYPTO_REF_COUNT, ptr }
%struct.CRYPTO_REF_COUNT = type { i32 }
%struct.evp_rand_st = type { ptr, i32, ptr, ptr, %struct.CRYPTO_REF_COUNT, ptr, ptr, ptr, ptr, ptr, ptr, ptr, ptr, ptr, ptr, ptr, ptr, ptr, ptr, ptr, ptr, ptr, ptr, ptr, ptr }

; Function Attrs: nounwind uwtable
define internal void @evp_rand_unlock(ptr noundef %0) #0 {
  %2 = alloca ptr, align 8
  store ptr %0, ptr %2, align 8, !tbaa !3
  %3 = load ptr, ptr %2, align 8, !tbaa !3
  %4 = getelementptr inbounds nuw %struct.evp_rand_ctx_st, ptr %3, i32 0, i32 0
  %5 = load ptr, ptr %4, align 8, !tbaa !8
  %6 = getelementptr inbounds nuw %struct.evp_rand_st, ptr %5, i32 0, i32 15
  %7 = load ptr, ptr %6, align 8, !tbaa !45
  %8 = icmp ne ptr %7, null
  br i1 %8, label %9, label %18

9:                                                ; preds = %1
  %10 = load ptr, ptr %2, align 8, !tbaa !3
  %11 = getelementptr inbounds nuw %struct.evp_rand_ctx_st, ptr %10, i32 0, i32 0
  %12 = load ptr, ptr %11, align 8, !tbaa !8
  %13 = getelementptr inbounds nuw %struct.evp_rand_st, ptr %12, i32 0, i32 15
  %14 = load ptr, ptr %13, align 8, !tbaa !45
  %15 = load ptr, ptr %2, align 8, !tbaa !3
  %16 = getelementptr inbounds nuw %struct.evp_rand_ctx_st, ptr %15, i32 0, i32 1
  %17 = load ptr, ptr %16, align 8, !tbaa !18
  call void %14(ptr noundef %17)
  br label %18

18:                                               ; preds = %9, %1
  ret void
}

; Function Attrs: nounwind uwtable
define internal i32 @evp_rand_reseed_locked(ptr noundef %0, i32 noundef %1, ptr noundef %2, i64 noundef %3, ptr noundef %4, i64 noundef %5) #0 {
  %7 = alloca i32, align 4
  %8 = alloca ptr, align 8
  %9 = alloca i32, align 4
  %10 = alloca ptr, align 8
  %11 = alloca i64, align 8
  %12 = alloca ptr, align 8
  %13 = alloca i64, align 8
  store ptr %0, ptr %8, align 8, !tbaa !3
  store i32 %1, ptr %9, align 4, !tbaa !22
  store ptr %2, ptr %10, align 8, !tbaa !21
  store i64 %3, ptr %11, align 8, !tbaa !65
  store ptr %4, ptr %12, align 8, !tbaa !21
  store i64 %5, ptr %13, align 8, !tbaa !65
  %14 = load ptr, ptr %8, align 8, !tbaa !3
  %15 = getelementptr inbounds nuw %struct.evp_rand_ctx_st, ptr %14, i32 0, i32 0
  %16 = load ptr, ptr %15, align 8, !tbaa !8
  %17 = getelementptr inbounds nuw %struct.evp_rand_st, ptr %16, i32 0, i32 11
  %18 = load ptr, ptr %17, align 8, !tbaa !42
  %19 = icmp ne ptr %18, null
  br i1 %19, label %20, label %35

20:                                               ; preds = %6
  %21 = load ptr, ptr %8, align 8, !tbaa !3
  %22 = getelementptr inbounds nuw %struct.evp_rand_ctx_st, ptr %21, i32 0, i32 0
  %23 = load ptr, ptr %22, align 8, !tbaa !8
  %24 = getelementptr inbounds nuw %struct.evp_rand_st, ptr %23, i32 0, i32 11
  %25 = load ptr, ptr %24, align 8, !tbaa !42
  %26 = load ptr, ptr %8, align 8, !tbaa !3
  %27 = getelementptr inbounds nuw %struct.evp_rand_ctx_st, ptr %26, i32 0, i32 1
  %28 = load ptr, ptr %27, align 8, !tbaa !18
  %29 = load i32, ptr %9, align 4, !tbaa !22
  %30 = load ptr, ptr %10, align 8, !tbaa !21
  %31 = load i64, ptr %11, align 8, !tbaa !65
  %32 = load ptr, ptr %12, align 8, !tbaa !21
  %33 = load i64, ptr %13, align 8, !tbaa !65
  %34 = call i32 %25(ptr noundef %28, i32 noundef %29, ptr noundef %30, i64 noundef %31, ptr noundef %32, i64 noundef %33)
  store i32 %34, ptr %7, align 4
  br label %36

35:                                               ; preds = %6
  store i32 1, ptr %7, align 4
  br label %36

36:                                               ; preds = %35, %20
  %37 = load i32, ptr %7, align 4
  ret i32 %37
}

; Function Attrs: nounwind uwtable
define internal i32 @evp_rand_lock(ptr noundef %0) #0 {
  %2 = alloca i32, align 4
  %3 = alloca ptr, align 8
  store ptr %0, ptr %3, align 8, !tbaa !3
  %4 = load ptr, ptr %3, align 8, !tbaa !3
  %5 = getelementptr inbounds nuw %struct.evp_rand_ctx_st, ptr %4, i32 0, i32 0
  %6 = load ptr, ptr %5, align 8, !tbaa !8
  %7 = getelementptr inbounds nuw %struct.evp_rand_st, ptr %6, i32 0, i32 14
  %8 = load ptr, ptr %7, align 8, !tbaa !44
  %9 = icmp ne ptr %8, null
  br i1 %9, label %10, label %20

10:                                               ; preds = %1
  %11 = load ptr, ptr %3, align 8, !tbaa !3
  %12 = getelementptr inbounds nuw %struct.evp_rand_ctx_st, ptr %11, i32 0, i32 0
  %13 = load ptr, ptr %12, align 8, !tbaa !8
  %14 = getelementptr inbounds nuw %struct.evp_rand_st, ptr %13, i32 0, i32 14
  %15 = load ptr, ptr %14, align 8, !tbaa !44
  %16 = load ptr, ptr %3, align 8, !tbaa !3
  %17 = getelementptr inbounds nuw %struct.evp_rand_ctx_st, ptr %16, i32 0, i32 1
  %18 = load ptr, ptr %17, align 8, !tbaa !18
  %19 = call i32 %15(ptr noundef %18)
  store i32 %19, ptr %2, align 4
  br label %21

20:                                               ; preds = %1
  store i32 1, ptr %2, align 4
  br label %21

21:                                               ; preds = %20, %10
  %22 = load i32, ptr %2, align 4
  ret i32 %22
}

; Function Attrs: nounwind uwtable
define i32 @EVP_RAND_reseed(ptr noundef %0, i32 noundef %1, ptr noundef %2, i64 noundef %3, ptr noundef %4, i64 noundef %5) #0 {
  %7 = alloca i32, align 4
  %8 = alloca ptr, align 8
  %9 = alloca i32, align 4
  %10 = alloca ptr, align 8
  %11 = alloca i64, align 8
  %12 = alloca ptr, align 8
  %13 = alloca i64, align 8
  %14 = alloca i32, align 4
  %15 = alloca i32, align 4
  store ptr %0, ptr %8, align 8, !tbaa !3
  store i32 %1, ptr %9, align 4, !tbaa !22
  store ptr %2, ptr %10, align 8, !tbaa !21
  store i64 %3, ptr %11, align 8, !tbaa !65
  store ptr %4, ptr %12, align 8, !tbaa !21
  store i64 %5, ptr %13, align 8, !tbaa !65
  call void @llvm.lifetime.start.p0(i64 4, ptr %14) #6
  %16 = load ptr, ptr %8, align 8, !tbaa !3
  %17 = call i32 @evp_rand_lock(ptr noundef %16)
  %18 = icmp ne i32 %17, 0
  br i1 %18, label %20, label %19

19:                                               ; preds = %6
  store i32 0, ptr %7, align 4
  store i32 1, ptr %15, align 4
  br label %30

20:                                               ; preds = %6
  %21 = load ptr, ptr %8, align 8, !tbaa !3
  %22 = load i32, ptr %9, align 4, !tbaa !22
  %23 = load ptr, ptr %10, align 8, !tbaa !21
  %24 = load i64, ptr %11, align 8, !tbaa !65
  %25 = load ptr, ptr %12, align 8, !tbaa !21
  %26 = load i64, ptr %13, align 8, !tbaa !65
  %27 = call i32 @evp_rand_reseed_locked(ptr noundef %21, i32 noundef %22, ptr noundef %23, i64 noundef %24, ptr noundef %25, i64 noundef %26)
  store i32 %27, ptr %14, align 4, !tbaa !22
  %28 = load ptr, ptr %8, align 8, !tbaa !3
  call void @evp_rand_unlock(ptr noundef %28)
  %29 = load i32, ptr %14, align 4, !tbaa !22
  store i32 %29, ptr %7, align 4
  store i32 1, ptr %15, align 4
  br label %30

30:                                               ; preds = %20, %19
  call void @llvm.lifetime.end.p0(i64 4, ptr %14) #6
  %31 = load i32, ptr %7, align 4
  ret i32 %31
}