; Function Attrs: nounwind uwtable
define i32 @EVP_RAND_reseed(ptr noundef readonly captures(none) %0, i32 noundef %1, ptr noundef %2, i64 noundef %3, ptr noundef %4, i64 noundef %5) local_unnamed_addr #0 {
  %7 = load ptr, ptr %0, align 8, !tbaa !3
  %8 = getelementptr inbounds nuw i8, ptr %7, i64 112
  %9 = load ptr, ptr %8, align 8, !tbaa !37
  %.not.i = icmp eq ptr %9, null
  br i1 %.not.i, label %evp_rand_lock.exit.thread, label %evp_rand_lock.exit

evp_rand_lock.exit:                               ; preds = %6
  %10 = getelementptr inbounds nuw i8, ptr %0, i64 8
  %11 = load ptr, ptr %10, align 8, !tbaa !17
  %12 = tail call i32 %9(ptr noundef %11) #8
  %.not = icmp eq i32 %12, 0
  br i1 %.not, label %evp_rand_unlock.exit, label %evp_rand_lock.exit.evp_rand_lock.exit.thread_crit_edge

evp_rand_lock.exit.evp_rand_lock.exit.thread_crit_edge: ; preds = %evp_rand_lock.exit
  %.pre = load ptr, ptr %0, align 8, !tbaa !3
  br label %evp_rand_lock.exit.thread

evp_rand_lock.exit.thread:                        ; preds = %evp_rand_lock.exit.evp_rand_lock.exit.thread_crit_edge, %6
  %13 = phi ptr [ %.pre, %evp_rand_lock.exit.evp_rand_lock.exit.thread_crit_edge ], [ %7, %6 ]
  %14 = getelementptr inbounds nuw i8, ptr %13, i64 88
  %15 = load ptr, ptr %14, align 8, !tbaa !35
  %.not.i9 = icmp eq ptr %15, null
  br i1 %.not.i9, label %evp_rand_reseed_locked.exit, label %16

16:                                               ; preds = %evp_rand_lock.exit.thread
  %17 = getelementptr inbounds nuw i8, ptr %0, i64 8
  %18 = load ptr, ptr %17, align 8, !tbaa !17
  %19 = tail call i32 %15(ptr noundef %18, i32 noundef %1, ptr noundef %2, i64 noundef %3, ptr noundef %4, i64 noundef %5) #8
  %.pre14 = load ptr, ptr %0, align 8, !tbaa !3
  br label %evp_rand_reseed_locked.exit

evp_rand_reseed_locked.exit:                      ; preds = %evp_rand_lock.exit.thread, %16
  %20 = phi ptr [ %.pre14, %16 ], [ %13, %evp_rand_lock.exit.thread ]
  %.0.i10 = phi i32 [ %19, %16 ], [ 1, %evp_rand_lock.exit.thread ]
  %21 = getelementptr inbounds nuw i8, ptr %20, i64 120
  %22 = load ptr, ptr %21, align 8, !tbaa !38
  %.not.i11 = icmp eq ptr %22, null
  br i1 %.not.i11, label %evp_rand_unlock.exit, label %23

23:                                               ; preds = %evp_rand_reseed_locked.exit
  %24 = getelementptr inbounds nuw i8, ptr %0, i64 8
  %25 = load ptr, ptr %24, align 8, !tbaa !17
  tail call void %22(ptr noundef %25) #8
  br label %evp_rand_unlock.exit

evp_rand_unlock.exit:                             ; preds = %23, %evp_rand_reseed_locked.exit, %evp_rand_lock.exit
  %.0 = phi i32 [ 0, %evp_rand_lock.exit ], [ %.0.i10, %evp_rand_reseed_locked.exit ], [ %.0.i10, %23 ]
  ret i32 %.0
}